; ModuleID = '16/448.c'
source_filename = "16/448.c"
target datalayout = "e-m:e-p270:32:32-p271:32:32-p272:64:64-i64:64-f80:128-n8:16:32:64-S128"
target triple = "x86_64-pc-linux-gnu"

@.str = private unnamed_addr constant [4 x i8] c"%d\0A\00", align 1
@.str.1 = private unnamed_addr constant [2 x i8] c"0\00", align 1

; Function Attrs: noinline nounwind uwtable
define dso_local i32 @main() #0 {
  %1 = alloca i32, align 4
  %2 = alloca i32, align 4
  %3 = alloca i32, align 4
  %4 = alloca i32, align 4
  %5 = alloca i32, align 4
  %6 = alloca i32, align 4
  %7 = alloca i32, align 4
  %8 = alloca i32, align 4
  store i32 0, i32* %1, align 4
  %9 = call i32 (i8*, ...) @__isoc99_scanf(i8* getelementptr inbounds ([4 x i8], [4 x i8]* @.str, i64 0, i64 0), i32* %2)
  %10 = load i32, i32* %2, align 4
  %11 = sdiv i32 %10, 10000
  store i32 %11, i32* %3, align 4
  %12 = load i32, i32* %2, align 4
  %13 = load i32, i32* %3, align 4
  %14 = mul nsw i32 10000, %13
  %15 = sub nsw i32 %12, %14
  %16 = sdiv i32 %15, 1000
  store i32 %16, i32* %4, align 4
  %17 = load i32, i32* %2, align 4
  %18 = load i32, i32* %3, align 4
  %19 = mul nsw i32 10000, %18
  %20 = sub nsw i32 %17, %19
  %21 = load i32, i32* %4, align 4
  %22 = mul nsw i32 1000, %21
  %23 = sub nsw i32 %20, %22
  %24 = sdiv i32 %23, 100
  store i32 %24, i32* %5, align 4
  %25 = load i32, i32* %2, align 4
  %26 = load i32, i32* %3, align 4
  %27 = mul nsw i32 10000, %26
  %28 = sub nsw i32 %25, %27
  %29 = load i32, i32* %4, align 4
  %30 = mul nsw i32 1000, %29
  %31 = sub nsw i32 %28, %30
  %32 = load i32, i32* %5, align 4
  %33 = mul nsw i32 100, %32
  %34 = sub nsw i32 %31, %33
  %35 = sdiv i32 %34, 10
  store i32 %35, i32* %6, align 4
  %36 = load i32, i32* %2, align 4
  %37 = load i32, i32* %3, align 4
  %38 = mul nsw i32 10000, %37
  %39 = sub nsw i32 %36, %38
  %40 = load i32, i32* %4, align 4
  %41 = mul nsw i32 1000, %40
  %42 = sub nsw i32 %39, %41
  %43 = load i32, i32* %5, align 4
  %44 = mul nsw i32 100, %43
  %45 = sub nsw i32 %42, %44
  %46 = load i32, i32* %6, align 4
  %47 = mul nsw i32 10, %46
  %48 = sub nsw i32 %45, %47
  store i32 %48, i32* %7, align 4
  %49 = load i32, i32* %2, align 4
  %50 = icmp ne i32 %49, 0
  br i1 %50, label %51, label %57

51:                                               ; preds = %0
  %52 = load i32, i32* %2, align 4
  %53 = srem i32 %52, 10
  %54 = icmp eq i32 %53, 0
  br i1 %54, label %55, label %57

55:                                               ; preds = %51
  %56 = call i32 (i8*, ...) @printf(i8* getelementptr inbounds ([2 x i8], [2 x i8]* @.str.1, i64 0, i64 0))
  br label %57

57:                                               ; preds = %55, %51, %0
  %58 = load i32, i32* %2, align 4
  %59 = icmp ne i32 %58, 0
  br i1 %59, label %60, label %66

60:                                               ; preds = %57
  %61 = load i32, i32* %2, align 4
  %62 = srem i32 %61, 100
  %63 = icmp eq i32 %62, 0
  br i1 %63, label %64, label %66

64:                                               ; preds = %60
  %65 = call i32 (i8*, ...) @printf(i8* getelementptr inbounds ([2 x i8], [2 x i8]* @.str.1, i64 0, i64 0))
  br label %66

66:                                               ; preds = %64, %60, %57
  %67 = load i32, i32* %3, align 4
  %68 = icmp ne i32 %67, 0
  br i1 %68, label %69, label %83

69:                                               ; preds = %66
  %70 = load i32, i32* %7, align 4
  %71 = mul nsw i32 %70, 10000
  %72 = load i32, i32* %6, align 4
  %73 = mul nsw i32 %72, 1000
  %74 = add nsw i32 %71, %73
  %75 = load i32, i32* %5, align 4
  %76 = mul nsw i32 %75, 100
  %77 = add nsw i32 %74, %76
  %78 = load i32, i32* %4, align 4
  %79 = mul nsw i32 %78, 10
  %80 = add nsw i32 %77, %79
  %81 = load i32, i32* %3, align 4
  %82 = add nsw i32 %80, %81
  store i32 %82, i32* %8, align 4
  br label %126

83:                                               ; preds = %66
  %84 = load i32, i32* %4, align 4
  %85 = icmp ne i32 %84, 0
  br i1 %85, label %86, label %97

86:                                               ; preds = %83
  %87 = load i32, i32* %7, align 4
  %88 = mul nsw i32 %87, 1000
  %89 = load i32, i32* %6, align 4
  %90 = mul nsw i32 %89, 100
  %91 = add nsw i32 %88, %90
  %92 = load i32, i32* %5, align 4
  %93 = mul nsw i32 %92, 10
  %94 = add nsw i32 %91, %93
  %95 = load i32, i32* %4, align 4
  %96 = add nsw i32 %94, %95
  store i32 %96, i32* %8, align 4
  br label %125

97:                                               ; preds = %83
  %98 = load i32, i32* %5, align 4
  %99 = icmp ne i32 %98, 0
  br i1 %99, label %100, label %108

100:                                              ; preds = %97
  %101 = load i32, i32* %7, align 4
  %102 = mul nsw i32 %101, 100
  %103 = load i32, i32* %6, align 4
  %104 = mul nsw i32 %103, 10
  %105 = add nsw i32 %102, %104
  %106 = load i32, i32* %5, align 4
  %107 = add nsw i32 %105, %106
  store i32 %107, i32* %8, align 4
  br label %124

108:                                              ; preds = %97
  %109 = load i32, i32* %6, align 4
  %110 = icmp ne i32 %109, 0
  br i1 %110, label %111, label %116

111:                                              ; preds = %108
  %112 = load i32, i32* %7, align 4
  %113 = mul nsw i32 %112, 10
  %114 = load i32, i32* %6, align 4
  %115 = add nsw i32 %113, %114
  store i32 %115, i32* %8, align 4
  br label %123

116:                                              ; preds = %108
  %117 = load i32, i32* %7, align 4
  %118 = icmp ne i32 %117, 0
  br i1 %118, label %119, label %121

119:                                              ; preds = %116
  %120 = load i32, i32* %7, align 4
  store i32 %120, i32* %8, align 4
  br label %122

121:                                              ; preds = %116
  store i32 0, i32* %8, align 4
  br label %122

122:                                              ; preds = %121, %119
  br label %123

123:                                              ; preds = %122, %111
  br label %124

124:                                              ; preds = %123, %100
  br label %125

125:                                              ; preds = %124, %86
  br label %126

126:                                              ; preds = %125, %69
  %127 = load i32, i32* %8, align 4
  %128 = call i32 (i8*, ...) @printf(i8* getelementptr inbounds ([4 x i8], [4 x i8]* @.str, i64 0, i64 0), i32 %127)
  ret i32 0
}

declare dso_local i32 @__isoc99_scanf(i8*, ...) #1

declare dso_local i32 @printf(i8*, ...) #1


!llvm.module.flags = !{!0}
!llvm.ident = !{!1}

!0 = !{i32 1, !"wchar_size", i32 4}
!1 = !{!"clang version 10.0.0-4ubuntu1 "}
